target datalayout = "e-m:e-p270:32:32-p271:32:32-p272:64:64-i64:64-i128:128-f80:128-n8:16:32:64-S128"
target triple = "x86_64-pc-linux-gnu"

@.str.174 = private unnamed_addr constant [11 x i8] c"refs/tags/\00", align 1

; Function Attrs: nounwind uwtable
define internal void @add_already_queued_tags(ptr noundef %0, ptr noundef %1, ptr noundef %2, ptr noundef %3) #0 {
  %5 = alloca ptr, align 8
  %6 = alloca ptr, align 8
  %7 = alloca ptr, align 8
  %8 = alloca ptr, align 8
  %9 = alloca ptr, align 8
  store ptr %0, ptr %5, align 8, !tbaa !11
  store ptr %1, ptr %6, align 8, !tbaa !84
  store ptr %2, ptr %7, align 8, !tbaa !84
  store ptr %3, ptr %8, align 8, !tbaa !108
  call void @llvm.lifetime.start.p0(i64 8, ptr %9) #11
  %10 = load ptr, ptr %8, align 8, !tbaa !108
  store ptr %10, ptr %9, align 8, !tbaa !257
  %11 = load ptr, ptr %5, align 8, !tbaa !11
  %12 = call i32 @starts_with(ptr noundef %11, ptr noundef @.str.174)
  %13 = icmp ne i32 %12, 0
  br i1 %13, label %14, label %22

14:                                               ; preds = %4
  %15 = load ptr, ptr %7, align 8, !tbaa !84
  %16 = icmp ne ptr %15, null
  br i1 %16, label %17, label %22

17:                                               ; preds = %14
  %18 = load ptr, ptr %9, align 8, !tbaa !257
  %19 = load ptr, ptr %5, align 8, !tbaa !11
  %20 = load ptr, ptr %7, align 8, !tbaa !84
  %21 = call ptr @refname_hash_add(ptr noundef %18, ptr noundef %19, ptr noundef %20)
  br label %22

22:                                               ; preds = %17, %14, %4
  call void @llvm.lifetime.end.p0(i64 8, ptr %9) #11
  ret void
}