; Function Attrs: nounwind uwtable
define internal void @add_already_queued_tags(ptr noundef %0, ptr readnone captures(none) %1, ptr noundef readonly %2, ptr noundef %3) #0 {
  %5 = tail call i32 @starts_with(ptr noundef %0, ptr noundef nonnull @.str.174) #20
  %6 = icmp ne i32 %5, 0
  %7 = icmp ne ptr %2, null
  %or.cond = and i1 %7, %6
  br i1 %or.cond, label %8, label %10

8:                                                ; preds = %4
  %9 = tail call fastcc ptr @refname_hash_add(ptr noundef %3, ptr noundef %0, ptr noundef nonnull %2)
  br label %10

10:                                               ; preds = %8, %4
  ret void
}